; Function Attrs: mustprogress uwtable
define void @_ZN6casadi13BSplineCommon7prepareExRKSt6vectorIxSaIxEES5_RxRS3_S7_(i64 noundef %0, ptr nocapture noundef nonnull readonly align 8 dereferenceable(24) %1, ptr nocapture noundef nonnull readonly align 8 dereferenceable(24) %2, ptr nocapture noundef nonnull writeonly align 8 dereferenceable(8) %3, ptr noundef nonnull align 8 dereferenceable(24) %4, ptr noundef nonnull align 8 dereferenceable(24) %5) local_unnamed_addr #3 align 2 personality ptr @__gxx_personality_v0 {
  %7 = getelementptr inbounds i8, ptr %2, i64 8
  %8 = load ptr, ptr %7, align 8
  %9 = load ptr, ptr %2, align 8
  %10 = ptrtoint ptr %8 to i64
  %11 = ptrtoint ptr %9 to i64
  %12 = sub i64 %10, %11
  %13 = ashr exact i64 %12, 3
  %.not.i = icmp eq ptr %8, %9
  br i1 %.not.i, label %_ZN6casadi13BSplineCommon14get_coeff_sizeExRKSt6vectorIxSaIxEES5_.exit, label %.lr.ph.i

.lr.ph.i:                                         ; preds = %6
  %14 = load ptr, ptr %1, align 8
  %umax.i = tail call i64 @llvm.umax.i64(i64 %13, i64 1)
  %.pre.i = load i64, ptr %14, align 8
  br label %15

15:                                               ; preds = %15, %.lr.ph.i
  %16 = phi i64 [ %.pre.i, %.lr.ph.i ], [ %19, %15 ]
  %.013.i = phi i64 [ 0, %.lr.ph.i ], [ %17, %15 ]
  %.01112.i = phi i64 [ %0, %.lr.ph.i ], [ %25, %15 ]
  %17 = add nuw nsw i64 %.013.i, 1
  %18 = getelementptr inbounds i64, ptr %14, i64 %17
  %19 = load i64, ptr %18, align 8
  %20 = getelementptr inbounds i64, ptr %9, i64 %.013.i
  %21 = load i64, ptr %20, align 8
  %22 = add i64 %21, %16
  %23 = xor i64 %22, -1
  %24 = add i64 %19, %23
  %25 = mul nsw i64 %24, %.01112.i
  %exitcond.not.i = icmp eq i64 %17, %umax.i
  br i1 %exitcond.not.i, label %_ZN6casadi13BSplineCommon14get_coeff_sizeExRKSt6vectorIxSaIxEES5_.exit, label %15, !llvm.loop !12

_ZN6casadi13BSplineCommon14get_coeff_sizeExRKSt6vectorIxSaIxEES5_.exit: ; preds = %15, %6
  %.011.lcssa.i = phi i64 [ %0, %6 ], [ %25, %15 ]
  store i64 %.011.lcssa.i, ptr %3, align 8
  %26 = add nsw i64 %13, 1
  %27 = getelementptr inbounds i8, ptr %4, i64 8
  %28 = load ptr, ptr %27, align 8
  %29 = load ptr, ptr %4, align 8
  %30 = ptrtoint ptr %28 to i64
  %31 = ptrtoint ptr %29 to i64
  %32 = sub i64 %30, %31
  %33 = ashr exact i64 %32, 3
  %34 = icmp ult i64 %33, %26
  br i1 %34, label %35, label %37

35:                                               ; preds = %_ZN6casadi13BSplineCommon14get_coeff_sizeExRKSt6vectorIxSaIxEES5_.exit
  %36 = sub nsw i64 %26, %33
  tail call void @_ZNSt6vectorIxSaIxEE17_M_default_appendEm(ptr noundef nonnull align 8 dereferenceable(24) %4, i64 noundef %36)
  %.pre = load ptr, ptr %4, align 8
  br label %_ZNSt6vectorIxSaIxEE6resizeEm.exit

37:                                               ; preds = %_ZN6casadi13BSplineCommon14get_coeff_sizeExRKSt6vectorIxSaIxEES5_.exit
  %38 = icmp ugt i64 %33, %26
  br i1 %38, label %39, label %_ZNSt6vectorIxSaIxEE6resizeEm.exit

39:                                               ; preds = %37
  %40 = getelementptr inbounds i64, ptr %29, i64 %26
  %.not.i.i = icmp eq ptr %28, %40
  br i1 %.not.i.i, label %_ZNSt6vectorIxSaIxEE6resizeEm.exit, label %41

41:                                               ; preds = %39
  store ptr %40, ptr %27, align 8
  br label %_ZNSt6vectorIxSaIxEE6resizeEm.exit

_ZNSt6vectorIxSaIxEE6resizeEm.exit:               ; preds = %35, %37, %39, %41
  %42 = phi ptr [ %.pre, %35 ], [ %29, %37 ], [ %29, %39 ], [ %29, %41 ]
  store i64 %0, ptr %42, align 8
  %43 = icmp sgt i64 %13, 0
  br i1 %43, label %.lr.ph, label %._crit_edge

.lr.ph:                                           ; preds = %_ZNSt6vectorIxSaIxEE6resizeEm.exit, %.lr.ph
  %.03236 = phi i64 [ %44, %.lr.ph ], [ 0, %_ZNSt6vectorIxSaIxEE6resizeEm.exit ]
  %44 = add nuw nsw i64 %.03236, 1
  %45 = load ptr, ptr %1, align 8
  %46 = getelementptr inbounds i64, ptr %45, i64 %44
  %47 = load i64, ptr %46, align 8
  %48 = getelementptr inbounds i64, ptr %45, i64 %.03236
  %49 = load i64, ptr %48, align 8
  %50 = load ptr, ptr %2, align 8
  %51 = getelementptr inbounds i64, ptr %50, i64 %.03236
  %52 = load i64, ptr %51, align 8
  %53 = add i64 %52, %49
  %54 = xor i64 %53, -1
  %55 = add i64 %47, %54
  %56 = load ptr, ptr %4, align 8
  %57 = getelementptr inbounds i64, ptr %56, i64 %44
  store i64 %55, ptr %57, align 8
  %exitcond.not = icmp eq i64 %44, %13
  br i1 %exitcond.not, label %._crit_edge, label %.lr.ph, !llvm.loop !13

._crit_edge:                                      ; preds = %.lr.ph, %_ZNSt6vectorIxSaIxEE6resizeEm.exit
  %58 = getelementptr inbounds i8, ptr %5, i64 8
  %59 = load ptr, ptr %58, align 8
  %60 = load ptr, ptr %5, align 8
  %61 = ptrtoint ptr %59 to i64
  %62 = ptrtoint ptr %60 to i64
  %63 = sub i64 %61, %62
  %64 = ashr exact i64 %63, 3
  %65 = icmp ult i64 %64, %13
  br i1 %65, label %66, label %68

66:                                               ; preds = %._crit_edge
  %67 = sub nsw i64 %13, %64
  tail call void @_ZNSt6vectorIxSaIxEE17_M_default_appendEm(ptr noundef nonnull align 8 dereferenceable(24) %5, i64 noundef %67)
  %.pre41 = load ptr, ptr %5, align 8
  br label %_ZNSt6vectorIxSaIxEE6resizeEm.exit35

68:                                               ; preds = %._crit_edge
  %69 = icmp ugt i64 %64, %13
  br i1 %69, label %70, label %_ZNSt6vectorIxSaIxEE6resizeEm.exit35

70:                                               ; preds = %68
  %71 = getelementptr inbounds i8, ptr %60, i64 %12
  %.not.i.i34 = icmp eq ptr %59, %71
  br i1 %.not.i.i34, label %_ZNSt6vectorIxSaIxEE6resizeEm.exit35, label %72

72:                                               ; preds = %70
  store ptr %71, ptr %58, align 8
  br label %_ZNSt6vectorIxSaIxEE6resizeEm.exit35

_ZNSt6vectorIxSaIxEE6resizeEm.exit35:             ; preds = %66, %68, %70, %72
  %73 = phi ptr [ %.pre41, %66 ], [ %60, %68 ], [ %60, %70 ], [ %60, %72 ]
  store i64 %0, ptr %73, align 8
  %74 = icmp sgt i64 %13, 1
  br i1 %74, label %.lr.ph38.preheader, label %._crit_edge39

.lr.ph38.preheader:                               ; preds = %_ZNSt6vectorIxSaIxEE6resizeEm.exit35
  %75 = add nsw i64 %13, -2
  br label %.lr.ph38

.lr.ph38:                                         ; preds = %.lr.ph38.preheader, %.lr.ph38
  %.037 = phi i64 [ %79, %.lr.ph38 ], [ 0, %.lr.ph38.preheader ]
  %76 = load ptr, ptr %5, align 8
  %77 = getelementptr inbounds i64, ptr %76, i64 %.037
  %78 = load i64, ptr %77, align 8
  %79 = add nuw nsw i64 %.037, 1
  %80 = load ptr, ptr %4, align 8
  %81 = getelementptr inbounds i64, ptr %80, i64 %79
  %82 = load i64, ptr %81, align 8
  %83 = mul nsw i64 %82, %78
  %84 = getelementptr inbounds i64, ptr %76, i64 %79
  store i64 %83, ptr %84, align 8
  %exitcond40.not = icmp eq i64 %.037, %75
  br i1 %exitcond40.not, label %._crit_edge39, label %.lr.ph38, !llvm.loop !14

._crit_edge39:                                    ; preds = %.lr.ph38, %_ZNSt6vectorIxSaIxEE6resizeEm.exit35
  ret void
}